target datalayout = "e-m:e-p270:32:32-p271:32:32-p272:64:64-i64:64-i128:128-f80:128-n8:16:32:64-S128"
target triple = "x86_64-pc-linux-gnu"

%struct.stat = type { i64, i64, i64, i32, i32, i32, i32, i64, i64, i64, i64, %struct.timespec, %struct.timespec, %struct.timespec, [3 x i64] }
%struct.timespec = type { i64, i64 }

@getZoneName.zidir = internal global ptr @.str.9, align 8

; Function Attrs: nounwind uwtable
define internal ptr @getZoneName(ptr noundef %0) #0 {
  %2 = alloca ptr, align 8
  %3 = alloca ptr, align 8
  %4 = alloca ptr, align 8
  store ptr %0, ptr %3, align 8
  %5 = load ptr, ptr %3, align 8
  %6 = load ptr, ptr @getZoneName.zidir, align 8
  %7 = call ptr @strstr(ptr noundef %5, ptr noundef %6) #7
  store ptr %7, ptr %4, align 8
  %8 = load ptr, ptr %4, align 8
  %9 = icmp eq ptr %8, null
  br i1 %9, label %10, label %11

10:                                               ; preds = %1
  store ptr null, ptr %2, align 8
  br label %16

11:                                               ; preds = %1
  %12 = load ptr, ptr %4, align 8
  %13 = load ptr, ptr @getZoneName.zidir, align 8
  %14 = call i64 @strlen(ptr noundef %13) #7
  %15 = getelementptr inbounds i8, ptr %12, i64 %14
  store ptr %15, ptr %2, align 8
  br label %16

16:                                               ; preds = %11, %10
  %17 = load ptr, ptr %2, align 8
  ret ptr %17
}

; Function Attrs: nounwind uwtable
define internal ptr @isFileIdentical(ptr noundef %0, i64 noundef %1, ptr noundef %2) #0 {
  %4 = alloca ptr, align 8
  %5 = alloca ptr, align 8
  %6 = alloca i64, align 8
  %7 = alloca ptr, align 8
  %8 = alloca ptr, align 8
  %9 = alloca %struct.stat, align 8
  %10 = alloca ptr, align 8
  %11 = alloca i32, align 4
  %12 = alloca i32, align 4
  store ptr %0, ptr %5, align 8
  store i64 %1, ptr %6, align 8
  store ptr %2, ptr %7, align 8
  store ptr null, ptr %8, align 8
  store ptr null, ptr %10, align 8
  store i32 -1, ptr %11, align 4
  br label %13

13:                                               ; preds = %3
  br label %14

14:                                               ; preds = %24, %13
  %15 = load ptr, ptr %7, align 8
  %16 = call i32 @stat64(ptr noundef %15, ptr noundef %9) #6
  store i32 %16, ptr %12, align 4
  br label %17

17:                                               ; preds = %14
  %18 = load i32, ptr %12, align 4
  %19 = icmp eq i32 %18, -1
  br i1 %19, label %20, label %24

20:                                               ; preds = %17
  %21 = call ptr @__errno_location() #8
  %22 = load i32, ptr %21, align 4
  %23 = icmp eq i32 %22, 4
  br label %24

24:                                               ; preds = %20, %17
  %25 = phi i1 [ false, %17 ], [ %23, %20 ]
  br i1 %25, label %14, label %26, !llvm.loop !16

26:                                               ; preds = %24
  br label %27

27:                                               ; preds = %26
  %28 = load i32, ptr %12, align 4
  %29 = icmp eq i32 %28, -1
  br i1 %29, label %30, label %31

30:                                               ; preds = %27
  store ptr null, ptr %4, align 8
  br label %123

31:                                               ; preds = %27
  %32 = getelementptr inbounds %struct.stat, ptr %9, i32 0, i32 3
  %33 = load i32, ptr %32, align 8
  %34 = and i32 %33, 61440
  %35 = icmp eq i32 %34, 16384
  br i1 %35, label %36, label %41

36:                                               ; preds = %31
  %37 = load ptr, ptr %5, align 8
  %38 = load i64, ptr %6, align 8
  %39 = load ptr, ptr %7, align 8
  %40 = call ptr @findZoneinfoFile(ptr noundef %37, i64 noundef %38, ptr noundef %39)
  store ptr %40, ptr %8, align 8
  br label %121

41:                                               ; preds = %31
  %42 = getelementptr inbounds %struct.stat, ptr %9, i32 0, i32 3
  %43 = load i32, ptr %42, align 8
  %44 = and i32 %43, 61440
  %45 = icmp eq i32 %44, 32768
  br i1 %45, label %46, label %120

46:                                               ; preds = %41
  %47 = getelementptr inbounds %struct.stat, ptr %9, i32 0, i32 8
  %48 = load i64, ptr %47, align 8
  %49 = load i64, ptr %6, align 8
  %50 = icmp eq i64 %48, %49
  br i1 %50, label %51, label %120

51:                                               ; preds = %46
  %52 = load i64, ptr %6, align 8
  %53 = call noalias ptr @malloc(i64 noundef %52) #9
  store ptr %53, ptr %10, align 8
  %54 = load ptr, ptr %10, align 8
  %55 = icmp eq ptr %54, null
  br i1 %55, label %56, label %57

56:                                               ; preds = %51
  store ptr null, ptr %4, align 8
  br label %123

57:                                               ; preds = %51
  br label %58

58:                                               ; preds = %57
  br label %59

59:                                               ; preds = %69, %58
  %60 = load ptr, ptr %7, align 8
  %61 = call i32 (ptr, i32, ...) @open64(ptr noundef %60, i32 noundef 0)
  store i32 %61, ptr %11, align 4
  br label %62

62:                                               ; preds = %59
  %63 = load i32, ptr %11, align 4
  %64 = icmp eq i32 %63, -1
  br i1 %64, label %65, label %69

65:                                               ; preds = %62
  %66 = call ptr @__errno_location() #8
  %67 = load i32, ptr %66, align 4
  %68 = icmp eq i32 %67, 4
  br label %69

69:                                               ; preds = %65, %62
  %70 = phi i1 [ false, %62 ], [ %68, %65 ]
  br i1 %70, label %59, label %71, !llvm.loop !17

71:                                               ; preds = %69
  br label %72

72:                                               ; preds = %71
  %73 = load i32, ptr %11, align 4
  %74 = icmp eq i32 %73, -1
  br i1 %74, label %75, label %76

75:                                               ; preds = %72
  br label %116

76:                                               ; preds = %72
  br label %77

77:                                               ; preds = %76
  br label %78

78:                                               ; preds = %91, %77
  %79 = load i32, ptr %11, align 4
  %80 = load ptr, ptr %10, align 8
  %81 = load i64, ptr %6, align 8
  %82 = call i64 @read(i32 noundef %79, ptr noundef %80, i64 noundef %81)
  %83 = trunc i64 %82 to i32
  store i32 %83, ptr %12, align 4
  br label %84

84:                                               ; preds = %78
  %85 = load i32, ptr %12, align 4
  %86 = icmp eq i32 %85, -1
  br i1 %86, label %87, label %91

87:                                               ; preds = %84
  %88 = call ptr @__errno_location() #8
  %89 = load i32, ptr %88, align 4
  %90 = icmp eq i32 %89, 4
  br label %91

91:                                               ; preds = %87, %84
  %92 = phi i1 [ false, %84 ], [ %90, %87 ]
  br i1 %92, label %78, label %93, !llvm.loop !18

93:                                               ; preds = %91
  br label %94

94:                                               ; preds = %93
  %95 = load i32, ptr %12, align 4
  %96 = sext i32 %95 to i64
  %97 = load i64, ptr %6, align 8
  %98 = icmp ne i64 %96, %97
  br i1 %98, label %99, label %100

99:                                               ; preds = %94
  br label %116

100:                                              ; preds = %94
  %101 = load ptr, ptr %5, align 8
  %102 = load ptr, ptr %10, align 8
  %103 = load i64, ptr %6, align 8
  %104 = call i32 @memcmp(ptr noundef %101, ptr noundef %102, i64 noundef %103) #7
  %105 = icmp eq i32 %104, 0
  br i1 %105, label %106, label %115

106:                                              ; preds = %100
  %107 = load ptr, ptr %7, align 8
  %108 = call ptr @getZoneName(ptr noundef %107)
  store ptr %108, ptr %8, align 8
  %109 = load ptr, ptr %8, align 8
  %110 = icmp ne ptr %109, null
  br i1 %110, label %111, label %114

111:                                              ; preds = %106
  %112 = load ptr, ptr %8, align 8
  %113 = call noalias ptr @strdup(ptr noundef %112) #6
  store ptr %113, ptr %8, align 8
  br label %114

114:                                              ; preds = %111, %106
  br label %115

115:                                              ; preds = %114, %100
  br label %116

116:                                              ; preds = %115, %99, %75
  %117 = load ptr, ptr %10, align 8
  call void @free(ptr noundef %117) #6
  %118 = load i32, ptr %11, align 4
  %119 = call i32 @close(i32 noundef %118)
  br label %120

120:                                              ; preds = %116, %46, %41
  br label %121

121:                                              ; preds = %120, %36
  %122 = load ptr, ptr %8, align 8
  store ptr %122, ptr %4, align 8
  br label %123

123:                                              ; preds = %121, %56, %30
  %124 = load ptr, ptr %4, align 8
  ret ptr %124
}