; Function Attrs: nounwind uwtable
define internal fastcc ptr @isFileIdentical(ptr nocapture noundef readonly %0, i64 noundef %1, ptr noundef readonly %2) unnamed_addr #0 {
  %4 = alloca %struct.stat, align 8
  br label %5

5:                                                ; preds = %8, %3
  %6 = call i32 @stat64(ptr noundef %2, ptr noundef nonnull %4) #14
  %7 = icmp eq i32 %6, -1
  br i1 %7, label %8, label %.critedge37

8:                                                ; preds = %5
  %9 = tail call ptr @__errno_location() #16
  %10 = load i32, ptr %9, align 4
  %11 = icmp eq i32 %10, 4
  br i1 %11, label %5, label %.critedge, !llvm.loop !16

.critedge37:                                      ; preds = %5
  %12 = getelementptr inbounds i8, ptr %4, i64 24
  %13 = load i32, ptr %12, align 8
  %14 = trunc i32 %13 to i16
  %trunc = and i16 %14, -4096
  switch i16 %trunc, label %.critedge [
    i16 16384, label %15
    i16 -32768, label %17
  ]

15:                                               ; preds = %.critedge37
  %16 = tail call fastcc ptr @findZoneinfoFile(ptr noundef %0, i64 noundef %1, ptr noundef %2)
  br label %.critedge

17:                                               ; preds = %.critedge37
  %18 = getelementptr inbounds i8, ptr %4, i64 48
  %19 = load i64, ptr %18, align 8
  %20 = icmp eq i64 %19, %1
  br i1 %20, label %21, label %.critedge

21:                                               ; preds = %17
  %22 = tail call noalias ptr @malloc(i64 noundef %1) #17
  %23 = icmp eq ptr %22, null
  br i1 %23, label %.critedge, label %.preheader

.preheader:                                       ; preds = %21, %26
  %24 = tail call i32 (ptr, i32, ...) @open64(ptr noundef %2, i32 noundef 0) #14
  %25 = icmp eq i32 %24, -1
  br i1 %25, label %26, label %.critedge38

26:                                               ; preds = %.preheader
  %27 = tail call ptr @__errno_location() #16
  %28 = load i32, ptr %27, align 4
  %29 = icmp eq i32 %28, 4
  br i1 %29, label %.preheader, label %.critedge2, !llvm.loop !17

.critedge38:                                      ; preds = %.preheader, %33
  %30 = tail call i64 @read(i32 noundef %24, ptr noundef nonnull %22, i64 noundef %1) #14
  %31 = and i64 %30, 4294967295
  %32 = icmp eq i64 %31, 4294967295
  br i1 %32, label %33, label %.critedge4

33:                                               ; preds = %.critedge38
  %34 = tail call ptr @__errno_location() #16
  %35 = load i32, ptr %34, align 4
  %36 = icmp eq i32 %35, 4
  br i1 %36, label %.critedge38, label %.critedge4, !llvm.loop !18

.critedge4:                                       ; preds = %.critedge38, %33
  %sext = shl i64 %30, 32
  %37 = ashr exact i64 %sext, 32
  %.not = icmp eq i64 %37, %1
  br i1 %.not, label %38, label %.critedge2

38:                                               ; preds = %.critedge4
  %bcmp = tail call i32 @bcmp(ptr %0, ptr nonnull %22, i64 %1)
  %39 = icmp eq i32 %bcmp, 0
  br i1 %39, label %40, label %.critedge2

40:                                               ; preds = %38
  %41 = tail call ptr @strstr(ptr noundef nonnull readonly dereferenceable(1) %2, ptr noundef nonnull dereferenceable(1) @.str.9) #15
  %42 = icmp eq ptr %41, null
  br i1 %42, label %.critedge2, label %43

43:                                               ; preds = %40
  %44 = getelementptr inbounds i8, ptr %41, i64 9
  %45 = tail call noalias ptr @strdup(ptr noundef nonnull %44) #14
  br label %.critedge2

.critedge2:                                       ; preds = %26, %38, %43, %40, %.critedge4
  %.0 = phi ptr [ null, %.critedge4 ], [ %45, %43 ], [ null, %40 ], [ null, %38 ], [ null, %26 ]
  tail call void @free(ptr noundef %22) #14
  %46 = tail call i32 @close(i32 noundef %24) #14
  br label %.critedge

.critedge:                                        ; preds = %8, %15, %.critedge2, %17, %.critedge37, %21
  %.031 = phi ptr [ null, %21 ], [ %16, %15 ], [ %.0, %.critedge2 ], [ null, %17 ], [ null, %.critedge37 ], [ null, %8 ]
  ret ptr %.031
}